target datalayout = "e-m:e-p270:32:32-p271:32:32-p272:64:64-i64:64-i128:128-f80:128-n8:16:32:64-S128"
target triple = "x86_64-pc-linux-gnu"

%class.ReservedSpace = type <{ ptr, i64, i64, i64, i64, i8, [3 x i8], i32, i8, [7 x i8] }>
%class.LogTagSet = type { ptr, i64, [5 x i32], [4 x i8], %class.LogOutputList, %class.LogDecorators, ptr }
%class.LogOutputList = type <{ [6 x ptr], i32, [4 x i8] }>
%class.LogDecorators = type { i32 }
%class.FileMapInfo = type { i8, i8, i8, i32, i64, ptr, ptr, ptr }
%class.FileMapHeader = type { %struct.CDSFileMapHeaderBase, i64, i32, ptr, i32, i8, i64, i32, i8, i8, i8, i64, i64, i8, i32, [256 x i8], i64, i16, i16, i16, i32, i8, i8, i8, ptr, ptr, i8, i8, i8, i64, i64, i64, i64, i64 }
%struct.CDSFileMapHeaderBase = type { %struct.GenericCDSFileMapHeader, [4 x %struct.CDSFileMapRegion] }
%struct.GenericCDSFileMapHeader = type { i32, i32, i32, i32, i32, i32 }
%struct.CDSFileMapRegion = type { i32, i32, i32, i32, i32, i32, i64, i64, i64, i64, i64, i64, i64, ptr }

@.str.68 = private unnamed_addr constant [79 x i8] c"Unable to map CDS archive -- core_region_alignment() expected: %lu actual: %lu\00", align 1
@_ZL15archive_regions = internal global [2 x i32] [i32 0, i32 1], align 4
@_ZL21archive_regions_count = internal global i32 2, align 4
@_ZN16LogTagSetMappingILN6LogTag4typeE14ELS1_0ELS1_0ELS1_0ELS1_0ELS1_0EE7_tagsetE = linkonce_odr hidden global %class.LogTagSet zeroinitializer, comdat, align 8
@_ZN6OSInfo26_vm_allocation_granularityE = external global i64, align 8

; Function Attrs: mustprogress nounwind uwtable
define linkonce_odr hidden noundef i64 @_ZN6OSInfo25vm_allocation_granularityEv() #1 comdat align 2 {
  %1 = load i64, ptr @_ZN6OSInfo26_vm_allocation_granularityE, align 8
  ret i64 %1
}

; Function Attrs: mustprogress nounwind uwtable
define linkonce_odr hidden noundef zeroext i1 @_ZNK13LogOutputList8is_levelEN8LogLevel4typeE(ptr noundef nonnull align 8 dereferenceable(52) %0, i32 noundef %1) #1 comdat align 2 {
  %3 = alloca ptr, align 8
  %4 = alloca i32, align 4
  store ptr %0, ptr %3, align 8
  store i32 %1, ptr %4, align 4
  %5 = load ptr, ptr %3, align 8
  %6 = getelementptr inbounds %class.LogOutputList, ptr %5, i32 0, i32 0
  %7 = load i32, ptr %4, align 4
  %8 = zext i32 %7 to i64
  %9 = getelementptr inbounds [6 x ptr], ptr %6, i64 0, i64 %8
  %10 = load volatile ptr, ptr %9, align 8
  %11 = icmp ne ptr %10, null
  ret i1 %11
}

; Function Attrs: mustprogress nounwind uwtable
define linkonce_odr hidden noundef i64 @_ZN2os25vm_allocation_granularityEv() #1 comdat align 2 {
  %1 = call noundef i64 @_ZN6OSInfo25vm_allocation_granularityEv()
  ret i64 %1
}

; Function Attrs: mustprogress nounwind uwtable
define linkonce_odr hidden noundef zeroext i1 @_ZNK9LogTagSet8is_levelEN8LogLevel4typeE(ptr noundef nonnull align 8 dereferenceable(112) %0, i32 noundef %1) #1 comdat align 2 {
  %3 = alloca ptr, align 8
  %4 = alloca i32, align 4
  store ptr %0, ptr %3, align 8
  store i32 %1, ptr %4, align 4
  %5 = load ptr, ptr %3, align 8
  %6 = getelementptr inbounds %class.LogTagSet, ptr %5, i32 0, i32 4
  %7 = load i32, ptr %4, align 4
  %8 = call noundef zeroext i1 @_ZNK13LogOutputList8is_levelEN8LogLevel4typeE(ptr noundef nonnull align 8 dereferenceable(52) %6, i32 noundef %7)
  ret i1 %8
}

; Function Attrs: mustprogress nounwind uwtable
define linkonce_odr hidden noundef nonnull align 8 dereferenceable(112) ptr @_ZN16LogTagSetMappingILN6LogTag4typeE14ELS1_0ELS1_0ELS1_0ELS1_0ELS1_0EE6tagsetEv() #1 comdat align 2 {
  ret ptr @_ZN16LogTagSetMappingILN6LogTag4typeE14ELS1_0ELS1_0ELS1_0ELS1_0ELS1_0EE7_tagsetE
}

; Function Attrs: mustprogress nounwind uwtable
define linkonce_odr hidden noundef i64 @_ZN2os25cds_core_region_alignmentEv() #1 comdat align 2 {
  %1 = call noundef i64 @_ZN2os25vm_allocation_granularityEv()
  ret i64 %1
}

; Function Attrs: mustprogress nounwind uwtable
define linkonce_odr hidden noundef i64 @_ZNK13FileMapHeader21core_region_alignmentEv(ptr noundef nonnull align 8 dereferenceable(792) %0) #1 comdat align 2 {
  %2 = alloca ptr, align 8
  store ptr %0, ptr %2, align 8
  %3 = load ptr, ptr %2, align 8
  %4 = getelementptr inbounds %class.FileMapHeader, ptr %3, i32 0, i32 1
  %5 = load i64, ptr %4, align 8
  ret i64 %5
}

; Function Attrs: mustprogress nounwind uwtable
define linkonce_odr hidden noundef ptr @_ZNK11FileMapInfo6headerEv(ptr noundef nonnull align 8 dereferenceable(40) %0) #1 comdat align 2 {
  %2 = alloca ptr, align 8
  store ptr %0, ptr %2, align 8
  %3 = load ptr, ptr %2, align 8
  %4 = getelementptr inbounds %class.FileMapInfo, ptr %3, i32 0, i32 7
  %5 = load ptr, ptr %4, align 8
  ret ptr %5
}

; Function Attrs: mustprogress nounwind uwtable
define hidden void @_ZN15MetaspaceShared13unmap_archiveEP11FileMapInfo(ptr noundef %0) #1 align 2 {
  %2 = alloca ptr, align 8
  store ptr %0, ptr %2, align 8
  %3 = load ptr, ptr %2, align 8
  %4 = icmp ne ptr %3, null
  br i1 %4, label %5, label %10

5:                                                ; preds = %1
  %6 = load ptr, ptr %2, align 8
  %7 = load i32, ptr @_ZL21archive_regions_count, align 4
  call void @_ZN11FileMapInfo13unmap_regionsEPii(ptr noundef nonnull align 8 dereferenceable(40) %6, ptr noundef @_ZL15archive_regions, i32 noundef %7)
  %8 = load ptr, ptr %2, align 8
  call void @_ZN11FileMapInfo12unmap_regionEi(ptr noundef nonnull align 8 dereferenceable(40) %8, i32 noundef 2)
  %9 = load ptr, ptr %2, align 8
  call void @_ZN11FileMapInfo13set_is_mappedEb(ptr noundef nonnull align 8 dereferenceable(40) %9, i1 noundef zeroext false)
  br label %10

10:                                               ; preds = %5, %1
  ret void
}

; Function Attrs: mustprogress nounwind uwtable
define linkonce_odr hidden noundef zeroext i1 @_ZN7LogImplILN6LogTag4typeE14ELS1_0ELS1_0ELS1_0ELS1_0ELS1_0EE8is_levelEN8LogLevel4typeE(i32 noundef %0) #1 comdat align 2 {
  %2 = alloca i32, align 4
  store i32 %0, ptr %2, align 4
  %3 = call noundef nonnull align 8 dereferenceable(112) ptr @_ZN16LogTagSetMappingILN6LogTag4typeE14ELS1_0ELS1_0ELS1_0ELS1_0ELS1_0EE6tagsetEv()
  %4 = load i32, ptr %2, align 4
  %5 = call noundef zeroext i1 @_ZNK9LogTagSet8is_levelEN8LogLevel4typeE(ptr noundef nonnull align 8 dereferenceable(112) %3, i32 noundef %4)
  ret i1 %5
}

; Function Attrs: mustprogress nounwind uwtable
define hidden noundef i64 @_ZN15MetaspaceShared21core_region_alignmentEv() #1 align 2 {
  %1 = call noundef i64 @_ZN2os25cds_core_region_alignmentEv()
  ret i64 %1
}

; Function Attrs: mustprogress nounwind uwtable
define linkonce_odr hidden noundef i64 @_ZNK11FileMapInfo21core_region_alignmentEv(ptr noundef nonnull align 8 dereferenceable(40) %0) #1 comdat align 2 {
  %2 = alloca ptr, align 8
  store ptr %0, ptr %2, align 8
  %3 = load ptr, ptr %2, align 8
  %4 = call noundef ptr @_ZNK11FileMapInfo6headerEv(ptr noundef nonnull align 8 dereferenceable(40) %3)
  %5 = call noundef i64 @_ZNK13FileMapHeader21core_region_alignmentEv(ptr noundef nonnull align 8 dereferenceable(792) %4)
  ret i64 %5
}

; Function Attrs: mustprogress nounwind uwtable
define linkonce_odr hidden void @_ZN11FileMapInfo13set_is_mappedEb(ptr noundef nonnull align 8 dereferenceable(40) %0, i1 noundef zeroext %1) #1 comdat align 2 {
  %3 = alloca ptr, align 8
  %4 = alloca i8, align 1
  store ptr %0, ptr %3, align 8
  %5 = zext i1 %1 to i8
  store i8 %5, ptr %4, align 1
  %6 = load ptr, ptr %3, align 8
  %7 = load i8, ptr %4, align 1
  %8 = trunc i8 %7 to i1
  %9 = getelementptr inbounds %class.FileMapInfo, ptr %6, i32 0, i32 2
  %10 = zext i1 %8 to i8
  store i8 %10, ptr %9, align 2
  ret void
}

; Function Attrs: mustprogress nounwind uwtable
define hidden noundef i32 @_ZN15MetaspaceShared11map_archiveEP11FileMapInfoPc13ReservedSpace(ptr noundef %0, ptr noundef %1, ptr noundef byval(%class.ReservedSpace) align 8 %2) #1 align 2 {
  %4 = alloca i32, align 4
  %5 = alloca ptr, align 8
  %6 = alloca ptr, align 8
  %7 = alloca i32, align 4
  %8 = alloca %class.ReservedSpace, align 8
  store ptr %0, ptr %5, align 8
  store ptr %1, ptr %6, align 8
  %9 = load ptr, ptr %5, align 8
  %10 = icmp eq ptr %9, null
  br i1 %10, label %11, label %12

11:                                               ; preds = %3
  store i32 0, ptr %4, align 4
  br label %43

12:                                               ; preds = %3
  %13 = load ptr, ptr %5, align 8
  call void @_ZN11FileMapInfo13set_is_mappedEb(ptr noundef nonnull align 8 dereferenceable(40) %13, i1 noundef zeroext false)
  %14 = load ptr, ptr %5, align 8
  %15 = call noundef i64 @_ZNK11FileMapInfo21core_region_alignmentEv(ptr noundef nonnull align 8 dereferenceable(40) %14)
  %16 = call noundef i64 @_ZN15MetaspaceShared21core_region_alignmentEv()
  %17 = icmp ne i64 %15, %16
  br i1 %17, label %18, label %26

18:                                               ; preds = %12
  %19 = call noundef zeroext i1 @_ZN7LogImplILN6LogTag4typeE14ELS1_0ELS1_0ELS1_0ELS1_0ELS1_0EE8is_levelEN8LogLevel4typeE(i32 noundef 3)
  br i1 %19, label %21, label %20

20:                                               ; preds = %18
  br label %25

21:                                               ; preds = %18
  %22 = load ptr, ptr %5, align 8
  %23 = call noundef i64 @_ZNK11FileMapInfo21core_region_alignmentEv(ptr noundef nonnull align 8 dereferenceable(40) %22)
  %24 = call noundef i64 @_ZN15MetaspaceShared21core_region_alignmentEv()
  call void (ptr, ...) @_ZN7LogImplILN6LogTag4typeE14ELS1_0ELS1_0ELS1_0ELS1_0ELS1_0EE5writeILN8LogLevel4typeE3EEEvPKcz(ptr noundef @.str.68, i64 noundef %23, i64 noundef %24)
  br label %25

25:                                               ; preds = %21, %20
  store i32 2, ptr %4, align 4
  br label %43

26:                                               ; preds = %12
  %27 = load ptr, ptr %5, align 8
  %28 = load i32, ptr @_ZL21archive_regions_count, align 4
  %29 = load ptr, ptr %6, align 8
  call void @llvm.memcpy.p0.p0.i64(ptr align 8 %8, ptr align 8 %2, i64 56, i1 false)
  %30 = call noundef i32 @_ZN11FileMapInfo11map_regionsEPiiPc13ReservedSpace(ptr noundef nonnull align 8 dereferenceable(40) %27, ptr noundef @_ZL15archive_regions, i32 noundef %28, ptr noundef %29, ptr noundef byval(%class.ReservedSpace) align 8 %8)
  store i32 %30, ptr %7, align 4
  %31 = load i32, ptr %7, align 4
  %32 = icmp ne i32 %31, 0
  br i1 %32, label %33, label %36

33:                                               ; preds = %26
  %34 = load ptr, ptr %5, align 8
  call void @_ZN15MetaspaceShared13unmap_archiveEP11FileMapInfo(ptr noundef %34)
  %35 = load i32, ptr %7, align 4
  store i32 %35, ptr %4, align 4
  br label %43

36:                                               ; preds = %26
  %37 = load ptr, ptr %5, align 8
  %38 = call noundef zeroext i1 @_ZN11FileMapInfo26validate_shared_path_tableEv(ptr noundef nonnull align 8 dereferenceable(40) %37)
  br i1 %38, label %41, label %39

39:                                               ; preds = %36
  %40 = load ptr, ptr %5, align 8
  call void @_ZN15MetaspaceShared13unmap_archiveEP11FileMapInfo(ptr noundef %40)
  store i32 2, ptr %4, align 4
  br label %43

41:                                               ; preds = %36
  %42 = load ptr, ptr %5, align 8
  call void @_ZN11FileMapInfo13set_is_mappedEb(ptr noundef nonnull align 8 dereferenceable(40) %42, i1 noundef zeroext true)
  store i32 0, ptr %4, align 4
  br label %43

43:                                               ; preds = %41, %39, %33, %25, %11
  %44 = load i32, ptr %4, align 4
  ret i32 %44
}