; Function Attrs: mustprogress nounwind uwtable
define hidden noundef i32 @_ZN15MetaspaceShared11map_archiveEP11FileMapInfoPc13ReservedSpace(ptr noundef %0, ptr noundef %1, ptr nocapture noundef readonly byval(%class.ReservedSpace) align 8 %2) local_unnamed_addr #3 align 2 {
  %4 = icmp eq ptr %0, null
  br i1 %4, label %20, label %5

5:                                                ; preds = %3
  %6 = getelementptr inbounds i8, ptr %0, i64 2
  store i8 0, ptr %6, align 2
  %7 = getelementptr inbounds i8, ptr %0, i64 32
  %8 = load ptr, ptr %7, align 8
  %9 = getelementptr inbounds i8, ptr %8, i64 376
  %10 = load i64, ptr %9, align 8
  %11 = load i64, ptr @_ZN6OSInfo26_vm_allocation_granularityE, align 8
  %.not = icmp eq i64 %10, %11
  br i1 %.not, label %15, label %12

12:                                               ; preds = %5
  %13 = load volatile ptr, ptr getelementptr inbounds (i8, ptr @_ZN16LogTagSetMappingILN6LogTag4typeE14ELS1_0ELS1_0ELS1_0ELS1_0ELS1_0EE7_tagsetE, i64 64), align 8
  %.not17 = icmp eq ptr %13, null
  br i1 %.not17, label %20, label %14

14:                                               ; preds = %12
  tail call void (ptr, ...) @_ZN7LogImplILN6LogTag4typeE14ELS1_0ELS1_0ELS1_0ELS1_0ELS1_0EE5writeILN8LogLevel4typeE3EEEvPKcz(ptr noundef nonnull @.str.68, i64 noundef %10, i64 noundef %11)
  br label %20

15:                                               ; preds = %5
  %16 = tail call noundef i32 @_ZN11FileMapInfo11map_regionsEPiiPc13ReservedSpace(ptr noundef nonnull align 8 dereferenceable(40) %0, ptr noundef nonnull @_ZL15archive_regions, i32 noundef 2, ptr noundef %1, ptr noundef nonnull byval(%class.ReservedSpace) align 8 %2) #15
  %.not14 = icmp eq i32 %16, 0
  br i1 %.not14, label %17, label %_ZN15MetaspaceShared13unmap_archiveEP11FileMapInfo.exit

_ZN15MetaspaceShared13unmap_archiveEP11FileMapInfo.exit: ; preds = %15
  tail call void @_ZN11FileMapInfo13unmap_regionsEPii(ptr noundef nonnull align 8 dereferenceable(40) %0, ptr noundef nonnull @_ZL15archive_regions, i32 noundef 2) #15
  tail call void @_ZN11FileMapInfo12unmap_regionEi(ptr noundef nonnull align 8 dereferenceable(40) %0, i32 noundef 2) #15
  store i8 0, ptr %6, align 2
  br label %20

17:                                               ; preds = %15
  %18 = tail call noundef zeroext i1 @_ZN11FileMapInfo26validate_shared_path_tableEv(ptr noundef nonnull align 8 dereferenceable(40) %0) #15
  br i1 %18, label %19, label %_ZN15MetaspaceShared13unmap_archiveEP11FileMapInfo.exit16

_ZN15MetaspaceShared13unmap_archiveEP11FileMapInfo.exit16: ; preds = %17
  tail call void @_ZN11FileMapInfo13unmap_regionsEPii(ptr noundef nonnull align 8 dereferenceable(40) %0, ptr noundef nonnull @_ZL15archive_regions, i32 noundef 2) #15
  tail call void @_ZN11FileMapInfo12unmap_regionEi(ptr noundef nonnull align 8 dereferenceable(40) %0, i32 noundef 2) #15
  store i8 0, ptr %6, align 2
  br label %20

19:                                               ; preds = %17
  store i8 1, ptr %6, align 2
  br label %20

20:                                               ; preds = %14, %12, %3, %19, %_ZN15MetaspaceShared13unmap_archiveEP11FileMapInfo.exit16, %_ZN15MetaspaceShared13unmap_archiveEP11FileMapInfo.exit
  %.0 = phi i32 [ %16, %_ZN15MetaspaceShared13unmap_archiveEP11FileMapInfo.exit ], [ 0, %19 ], [ 2, %_ZN15MetaspaceShared13unmap_archiveEP11FileMapInfo.exit16 ], [ 0, %3 ], [ 2, %12 ], [ 2, %14 ]
  ret i32 %.0
}